; Function Attrs: mustprogress uwtable
define void @_ZNK3gmx21FileNameOptionStorage22formatExtraDescriptionB5cxx11Ev(ptr dead_on_unwind noalias writable sret(%"class.std::__cxx11::basic_string") align 8 %0, ptr nocapture noundef nonnull readonly align 8 dereferenceable(244) %1) unnamed_addr #0 align 2 personality ptr @__gxx_personality_v0 {
  %3 = getelementptr inbounds i8, ptr %1, i64 224
  %4 = load i32, ptr %3, align 8
  %5 = icmp sgt i32 %4, -1
  br i1 %5, label %6, label %_ZN3gmx12_GLOBAL__N_115FileTypeHandlerC2Ei.exit.thread

6:                                                ; preds = %2
  %7 = tail call noundef i32 @_Z17ftp2generic_counti(i32 noundef %4)
  %8 = icmp sgt i32 %7, 0
  br i1 %8, label %_ZN3gmx12_GLOBAL__N_115FileTypeHandlerC2Ei.exit, label %9

9:                                                ; preds = %6
  %10 = tail call noundef ptr @_Z16ftp2ext_with_doti(i32 noundef %4)
  br label %_ZN3gmx12_GLOBAL__N_115FileTypeHandlerC2Ei.exit.thread

_ZN3gmx12_GLOBAL__N_115FileTypeHandlerC2Ei.exit.thread: ; preds = %9, %2
  tail call void @_ZNSt7__cxx1112basic_stringIcSt11char_traitsIcESaIcEEC1Ev(ptr noundef nonnull align 8 dereferenceable(32) %0) #22
  br label %.loopexit

_ZN3gmx12_GLOBAL__N_115FileTypeHandlerC2Ei.exit:  ; preds = %6
  %11 = tail call noundef ptr @_Z16ftp2generic_listi(i32 noundef %4)
  tail call void @_ZNSt7__cxx1112basic_stringIcSt11char_traitsIcESaIcEEC1Ev(ptr noundef nonnull align 8 dereferenceable(32) %0) #22
  %12 = icmp ugt i32 %7, 2
  br i1 %12, label %13, label %.loopexit

13:                                               ; preds = %_ZN3gmx12_GLOBAL__N_115FileTypeHandlerC2Ei.exit
  %14 = invoke noundef nonnull align 8 dereferenceable(32) ptr @_ZNSt7__cxx1112basic_stringIcSt11char_traitsIcESaIcEE6appendEPKc(ptr noundef nonnull align 8 dereferenceable(32) %0, ptr noundef nonnull @.str.5)
          to label %.lr.ph unwind label %.loopexit.split-lp

.lr.ph:                                           ; preds = %13
  %.not.i9 = icmp eq ptr %11, null
  br i1 %.not.i9, label %.lr.ph.split.us, label %.lr.ph.split.preheader

.lr.ph.split.preheader:                           ; preds = %.lr.ph
  %wide.trip.count = zext nneg i32 %7 to i64
  br label %.lr.ph.split

.lr.ph.split.us:                                  ; preds = %.lr.ph, %22
  %.016.us = phi i32 [ %23, %22 ], [ 0, %.lr.ph ]
  %15 = invoke noundef nonnull align 8 dereferenceable(32) ptr @_ZNSt7__cxx1112basic_stringIcSt11char_traitsIcESaIcEE6appendEPKc(ptr noundef nonnull align 8 dereferenceable(32) %0, ptr noundef nonnull @.str.6)
          to label %16 unwind label %.loopexit15.split.us

16:                                               ; preds = %.lr.ph.split.us
  %17 = invoke noundef ptr @_Z16ftp2ext_with_doti(i32 noundef %4)
          to label %_ZNK3gmx12_GLOBAL__N_115FileTypeHandler9extensionEi.exit.us unwind label %.loopexit15.split.us

_ZNK3gmx12_GLOBAL__N_115FileTypeHandler9extensionEi.exit.us: ; preds = %16
  %18 = getelementptr inbounds i8, ptr %17, i64 1
  %19 = invoke noundef nonnull align 8 dereferenceable(32) ptr @_ZNSt7__cxx1112basic_stringIcSt11char_traitsIcESaIcEE6appendEPKc(ptr noundef nonnull align 8 dereferenceable(32) %0, ptr noundef nonnull %18)
          to label %20 unwind label %.loopexit15.split.us

20:                                               ; preds = %_ZNK3gmx12_GLOBAL__N_115FileTypeHandler9extensionEi.exit.us
  %21 = invoke noundef nonnull align 8 dereferenceable(32) ptr @_ZNSt7__cxx1112basic_stringIcSt11char_traitsIcESaIcEE6appendEPKc(ptr noundef nonnull align 8 dereferenceable(32) %0, ptr noundef nonnull @.str.7)
          to label %22 unwind label %.loopexit15.split.us

22:                                               ; preds = %20
  %23 = add nuw nsw i32 %.016.us, 1
  %exitcond19.not = icmp eq i32 %23, %7
  br i1 %exitcond19.not, label %.loopexit, label %.lr.ph.split.us, !llvm.loop !10

.loopexit15.split.us:                             ; preds = %20, %_ZNK3gmx12_GLOBAL__N_115FileTypeHandler9extensionEi.exit.us, %16, %.lr.ph.split.us
  %lpad.loopexit.us = landingpad { ptr, i32 }
          cleanup
  br label %.loopexit15

.lr.ph.split:                                     ; preds = %.lr.ph.split.preheader, %33
  %indvars.iv = phi i64 [ 0, %.lr.ph.split.preheader ], [ %indvars.iv.next, %33 ]
  %24 = invoke noundef nonnull align 8 dereferenceable(32) ptr @_ZNSt7__cxx1112basic_stringIcSt11char_traitsIcESaIcEE6appendEPKc(ptr noundef nonnull align 8 dereferenceable(32) %0, ptr noundef nonnull @.str.6)
          to label %25 unwind label %.loopexit15.split

25:                                               ; preds = %.lr.ph.split
  %26 = getelementptr inbounds i32, ptr %11, i64 %indvars.iv
  %27 = load i32, ptr %26, align 4
  %28 = invoke noundef ptr @_Z16ftp2ext_with_doti(i32 noundef %27)
          to label %_ZNK3gmx12_GLOBAL__N_115FileTypeHandler9extensionEi.exit unwind label %.loopexit15.split

_ZNK3gmx12_GLOBAL__N_115FileTypeHandler9extensionEi.exit: ; preds = %25
  %29 = getelementptr inbounds i8, ptr %28, i64 1
  %30 = invoke noundef nonnull align 8 dereferenceable(32) ptr @_ZNSt7__cxx1112basic_stringIcSt11char_traitsIcESaIcEE6appendEPKc(ptr noundef nonnull align 8 dereferenceable(32) %0, ptr noundef nonnull %29)
          to label %31 unwind label %.loopexit15.split

31:                                               ; preds = %_ZNK3gmx12_GLOBAL__N_115FileTypeHandler9extensionEi.exit
  %32 = invoke noundef nonnull align 8 dereferenceable(32) ptr @_ZNSt7__cxx1112basic_stringIcSt11char_traitsIcESaIcEE6appendEPKc(ptr noundef nonnull align 8 dereferenceable(32) %0, ptr noundef nonnull @.str.7)
          to label %33 unwind label %.loopexit15.split

33:                                               ; preds = %31
  %indvars.iv.next = add nuw nsw i64 %indvars.iv, 1
  %exitcond.not = icmp eq i64 %indvars.iv.next, %wide.trip.count
  br i1 %exitcond.not, label %.loopexit, label %.lr.ph.split, !llvm.loop !10

.loopexit15.split:                                ; preds = %.lr.ph.split, %_ZNK3gmx12_GLOBAL__N_115FileTypeHandler9extensionEi.exit, %31, %25
  %lpad.loopexit = landingpad { ptr, i32 }
          cleanup
  br label %.loopexit15

.loopexit.split-lp:                               ; preds = %13
  %lpad.loopexit.split-lp = landingpad { ptr, i32 }
          cleanup
  br label %.loopexit15

.loopexit15:                                      ; preds = %.loopexit15.split, %.loopexit15.split.us, %.loopexit.split-lp
  %lpad.phi = phi { ptr, i32 } [ %lpad.loopexit.split-lp, %.loopexit.split-lp ], [ %lpad.loopexit, %.loopexit15.split ], [ %lpad.loopexit.us, %.loopexit15.split.us ]
  tail call void @_ZNSt7__cxx1112basic_stringIcSt11char_traitsIcESaIcEED1Ev(ptr noundef nonnull align 8 dereferenceable(32) %0) #22
  resume { ptr, i32 } %lpad.phi

.loopexit:                                        ; preds = %33, %22, %_ZN3gmx12_GLOBAL__N_115FileTypeHandlerC2Ei.exit.thread, %_ZN3gmx12_GLOBAL__N_115FileTypeHandlerC2Ei.exit
  ret void
}